target datalayout = "e-m:e-p270:32:32-p271:32:32-p272:64:64-i64:64-i128:128-f80:128-n8:16:32:64-S128"
target triple = "x86_64-pc-linux-gnu"

%struct.Abc_Ntk_t_ = type { i32, i32, ptr, ptr, ptr, ptr, ptr, ptr, ptr, ptr, ptr, ptr, ptr, [11 x i32], i32, i32, i32, i32, ptr, i32, ptr, ptr, i32, i32, i32, double, i32, %struct.Vec_Int_t_, ptr, ptr, ptr, ptr, ptr, float, i32, ptr, ptr, ptr, ptr, ptr, ptr, ptr, ptr, ptr, ptr, ptr, ptr, ptr, ptr, ptr, ptr, ptr, ptr, ptr, ptr, ptr }
%struct.Vec_Int_t_ = type { i32, i32, ptr }
%struct.Abc_Obj_t_ = type { ptr, ptr, i32, i32, %struct.Vec_Int_t_, %struct.Vec_Int_t_, %union.anon, %union.anon.0 }
%union.anon = type { ptr }
%union.anon.0 = type { ptr }
%struct.Vec_Ptr_t_ = type { i32, i32, ptr }

@stdout = external global ptr, align 8

; Function Attrs: nounwind uwtable
define internal i32 @Abc_ObjFaninNum(ptr noundef %0) #0 {
  %2 = alloca ptr, align 8
  store ptr %0, ptr %2, align 8
  %3 = load ptr, ptr %2, align 8
  %4 = getelementptr inbounds %struct.Abc_Obj_t_, ptr %3, i32 0, i32 4
  %5 = getelementptr inbounds %struct.Vec_Int_t_, ptr %4, i32 0, i32 1
  %6 = load i32, ptr %5, align 4
  ret i32 %6
}

; Function Attrs: nounwind uwtable
define void @Abc_NodePrintKMap(ptr noundef %0, i32 noundef %1) #0 {
  %3 = alloca ptr, align 8
  %4 = alloca i32, align 4
  %5 = alloca ptr, align 8
  store ptr %0, ptr %3, align 8
  store i32 %1, ptr %4, align 4
  %6 = load i32, ptr %4, align 4
  %7 = icmp ne i32 %6, 0
  br i1 %7, label %8, label %32

8:                                                ; preds = %2
  %9 = load ptr, ptr %3, align 8
  %10 = call ptr @Abc_NodeGetFaninNames(ptr noundef %9)
  store ptr %10, ptr %5, align 8
  %11 = load ptr, ptr @stdout, align 8
  %12 = load ptr, ptr %3, align 8
  %13 = getelementptr inbounds %struct.Abc_Obj_t_, ptr %12, i32 0, i32 0
  %14 = load ptr, ptr %13, align 8
  %15 = getelementptr inbounds %struct.Abc_Ntk_t_, ptr %14, i32 0, i32 30
  %16 = load ptr, ptr %15, align 8
  %17 = load ptr, ptr %3, align 8
  %18 = getelementptr inbounds %struct.Abc_Obj_t_, ptr %17, i32 0, i32 6
  %19 = load ptr, ptr %18, align 8
  %20 = load ptr, ptr %3, align 8
  %21 = getelementptr inbounds %struct.Abc_Obj_t_, ptr %20, i32 0, i32 6
  %22 = load ptr, ptr %21, align 8
  %23 = ptrtoint ptr %22 to i64
  %24 = xor i64 %23, 1
  %25 = inttoptr i64 %24 to ptr
  %26 = load ptr, ptr %3, align 8
  %27 = call i32 @Abc_ObjFaninNum(ptr noundef %26)
  %28 = load ptr, ptr %5, align 8
  %29 = getelementptr inbounds %struct.Vec_Ptr_t_, ptr %28, i32 0, i32 2
  %30 = load ptr, ptr %29, align 8
  call void @Extra_PrintKMap(ptr noundef %11, ptr noundef %16, ptr noundef %19, ptr noundef %25, i32 noundef %27, ptr noundef null, i32 noundef 0, ptr noundef %30)
  %31 = load ptr, ptr %5, align 8
  call void @Abc_NodeFreeNames(ptr noundef %31)
  br label %50

32:                                               ; preds = %2
  %33 = load ptr, ptr @stdout, align 8
  %34 = load ptr, ptr %3, align 8
  %35 = getelementptr inbounds %struct.Abc_Obj_t_, ptr %34, i32 0, i32 0
  %36 = load ptr, ptr %35, align 8
  %37 = getelementptr inbounds %struct.Abc_Ntk_t_, ptr %36, i32 0, i32 30
  %38 = load ptr, ptr %37, align 8
  %39 = load ptr, ptr %3, align 8
  %40 = getelementptr inbounds %struct.Abc_Obj_t_, ptr %39, i32 0, i32 6
  %41 = load ptr, ptr %40, align 8
  %42 = load ptr, ptr %3, align 8
  %43 = getelementptr inbounds %struct.Abc_Obj_t_, ptr %42, i32 0, i32 6
  %44 = load ptr, ptr %43, align 8
  %45 = ptrtoint ptr %44 to i64
  %46 = xor i64 %45, 1
  %47 = inttoptr i64 %46 to ptr
  %48 = load ptr, ptr %3, align 8
  %49 = call i32 @Abc_ObjFaninNum(ptr noundef %48)
  call void @Extra_PrintKMap(ptr noundef %33, ptr noundef %38, ptr noundef %41, ptr noundef %47, i32 noundef %49, ptr noundef null, i32 noundef 0, ptr noundef null)
  br label %50

50:                                               ; preds = %32, %8
  ret void
}