; Function Attrs: nounwind uwtable
define void @Abc_NodePrintKMap(ptr noundef %0, i32 noundef %1) local_unnamed_addr #0 {
  %.not = icmp eq i32 %1, 0
  br i1 %.not, label %17, label %3

3:                                                ; preds = %2
  %4 = tail call ptr @Abc_NodeGetFaninNames(ptr noundef %0) #19
  %5 = load ptr, ptr @stdout, align 8
  %6 = load ptr, ptr %0, align 8
  %7 = getelementptr inbounds nuw i8, ptr %6, i64 256
  %8 = load ptr, ptr %7, align 8
  %9 = getelementptr inbounds nuw i8, ptr %0, i64 56
  %10 = load ptr, ptr %9, align 8
  %11 = ptrtoint ptr %10 to i64
  %12 = xor i64 %11, 1
  %13 = inttoptr i64 %12 to ptr
  %14 = getelementptr i8, ptr %0, i64 28
  %.val11 = load i32, ptr %14, align 4
  %15 = getelementptr inbounds nuw i8, ptr %4, i64 8
  %16 = load ptr, ptr %15, align 8
  tail call void @Extra_PrintKMap(ptr noundef %5, ptr noundef %8, ptr noundef %10, ptr noundef %13, i32 noundef %.val11, ptr noundef null, i32 noundef 0, ptr noundef %16) #19
  tail call void @Abc_NodeFreeNames(ptr noundef %4) #19
  br label %28

17:                                               ; preds = %2
  %18 = load ptr, ptr @stdout, align 8
  %19 = load ptr, ptr %0, align 8
  %20 = getelementptr inbounds nuw i8, ptr %19, i64 256
  %21 = load ptr, ptr %20, align 8
  %22 = getelementptr inbounds nuw i8, ptr %0, i64 56
  %23 = load ptr, ptr %22, align 8
  %24 = ptrtoint ptr %23 to i64
  %25 = xor i64 %24, 1
  %26 = inttoptr i64 %25 to ptr
  %27 = getelementptr i8, ptr %0, i64 28
  %.val = load i32, ptr %27, align 4
  tail call void @Extra_PrintKMap(ptr noundef %18, ptr noundef %21, ptr noundef %23, ptr noundef %26, i32 noundef %.val, ptr noundef null, i32 noundef 0, ptr noundef null) #19
  br label %28

28:                                               ; preds = %17, %3
  ret void
}